target datalayout = "e-m:e-p270:32:32-p271:32:32-p272:64:64-i64:64-i128:128-f80:128-n8:16:32:64-S128"
target triple = "x86_64-pc-linux-gnu"

; Function Attrs: nounwind uwtable
define i32 @adjustInfoAfterSwap(ptr noundef %0, i32 noundef %1, i32 noundef %2, i32 noundef %3) #0 {
  %5 = alloca i32, align 4
  %6 = alloca ptr, align 8
  %7 = alloca i32, align 4
  %8 = alloca i32, align 4
  %9 = alloca i32, align 4
  %10 = alloca i8, align 1
  store ptr %0, ptr %6, align 8, !tbaa !3
  store i32 %1, ptr %7, align 4, !tbaa !9
  store i32 %2, ptr %8, align 4, !tbaa !9
  store i32 %3, ptr %9, align 4, !tbaa !9
  %11 = load i32, ptr %9, align 4, !tbaa !9
  %12 = icmp ult i32 %11, 4
  br i1 %12, label %13, label %19

13:                                               ; preds = %4
  %14 = load i32, ptr %9, align 4, !tbaa !9
  %15 = load i32, ptr %8, align 4, !tbaa !9
  %16 = shl i32 %14, %15
  %17 = load i32, ptr %7, align 4, !tbaa !9
  %18 = xor i32 %17, %16
  store i32 %18, ptr %7, align 4, !tbaa !9
  store i32 %18, ptr %5, align 4
  br label %73

19:                                               ; preds = %4
  call void @llvm.lifetime.start.p0(i64 1, ptr %10) #4
  %20 = load i32, ptr %9, align 4, !tbaa !9
  %21 = sub i32 %20, 4
  %22 = load i32, ptr %8, align 4, !tbaa !9
  %23 = shl i32 %21, %22
  %24 = load i32, ptr %7, align 4, !tbaa !9
  %25 = xor i32 %24, %23
  store i32 %25, ptr %7, align 4, !tbaa !9
  %26 = load ptr, ptr %6, align 8, !tbaa !3
  %27 = load i32, ptr %8, align 4, !tbaa !9
  %28 = sext i32 %27 to i64
  %29 = getelementptr inbounds i8, ptr %26, i64 %28
  %30 = load i8, ptr %29, align 1, !tbaa !8
  store i8 %30, ptr %10, align 1, !tbaa !8
  %31 = load ptr, ptr %6, align 8, !tbaa !3
  %32 = load i32, ptr %8, align 4, !tbaa !9
  %33 = add nsw i32 %32, 1
  %34 = sext i32 %33 to i64
  %35 = getelementptr inbounds i8, ptr %31, i64 %34
  %36 = load i8, ptr %35, align 1, !tbaa !8
  %37 = load ptr, ptr %6, align 8, !tbaa !3
  %38 = load i32, ptr %8, align 4, !tbaa !9
  %39 = sext i32 %38 to i64
  %40 = getelementptr inbounds i8, ptr %37, i64 %39
  store i8 %36, ptr %40, align 1, !tbaa !8
  %41 = load i8, ptr %10, align 1, !tbaa !8
  %42 = load ptr, ptr %6, align 8, !tbaa !3
  %43 = load i32, ptr %8, align 4, !tbaa !9
  %44 = add nsw i32 %43, 1
  %45 = sext i32 %44 to i64
  %46 = getelementptr inbounds i8, ptr %42, i64 %45
  store i8 %41, ptr %46, align 1, !tbaa !8
  %47 = load i32, ptr %7, align 4, !tbaa !9
  %48 = load i32, ptr %8, align 4, !tbaa !9
  %49 = shl i32 1, %48
  %50 = and i32 %47, %49
  %51 = icmp ugt i32 %50, 0
  %52 = zext i1 %51 to i32
  %53 = load i32, ptr %7, align 4, !tbaa !9
  %54 = load i32, ptr %8, align 4, !tbaa !9
  %55 = add nsw i32 %54, 1
  %56 = shl i32 1, %55
  %57 = and i32 %53, %56
  %58 = icmp ugt i32 %57, 0
  %59 = zext i1 %58 to i32
  %60 = icmp ne i32 %52, %59
  br i1 %60, label %61, label %71

61:                                               ; preds = %19
  %62 = load i32, ptr %8, align 4, !tbaa !9
  %63 = shl i32 1, %62
  %64 = load i32, ptr %7, align 4, !tbaa !9
  %65 = xor i32 %64, %63
  store i32 %65, ptr %7, align 4, !tbaa !9
  %66 = load i32, ptr %8, align 4, !tbaa !9
  %67 = add nsw i32 %66, 1
  %68 = shl i32 1, %67
  %69 = load i32, ptr %7, align 4, !tbaa !9
  %70 = xor i32 %69, %68
  store i32 %70, ptr %7, align 4, !tbaa !9
  br label %71

71:                                               ; preds = %61, %19
  %72 = load i32, ptr %7, align 4, !tbaa !9
  store i32 %72, ptr %5, align 4
  call void @llvm.lifetime.end.p0(i64 1, ptr %10) #4
  br label %73

73:                                               ; preds = %71, %13
  %74 = load i32, ptr %5, align 4
  ret i32 %74
}