; Function Attrs: mustprogress nofree norecurse nosync nounwind willreturn memory(argmem: readwrite) uwtable
define i32 @adjustInfoAfterSwap(ptr noundef captures(none) %0, i32 noundef %1, i32 noundef %2, i32 noundef %3) local_unnamed_addr #3 {
  %5 = icmp ult i32 %3, 4
  br i1 %5, label %6, label %9

6:                                                ; preds = %4
  %7 = shl i32 %3, %2
  %8 = xor i32 %7, %1
  br label %30

9:                                                ; preds = %4
  %10 = add i32 %3, -4
  %11 = shl i32 %10, %2
  %12 = xor i32 %11, %1
  %13 = sext i32 %2 to i64
  %14 = getelementptr inbounds i8, ptr %0, i64 %13
  %15 = load i8, ptr %14, align 1, !tbaa !3
  %16 = add nsw i32 %2, 1
  %17 = sext i32 %16 to i64
  %18 = getelementptr inbounds i8, ptr %0, i64 %17
  %19 = load i8, ptr %18, align 1, !tbaa !3
  store i8 %19, ptr %14, align 1, !tbaa !3
  store i8 %15, ptr %18, align 1, !tbaa !3
  %20 = lshr i32 %12, %2
  %21 = lshr i32 %12, %16
  %22 = xor i32 %20, %21
  %23 = and i32 %22, 1
  %.not = icmp eq i32 %23, 0
  br i1 %.not, label %30, label %24

24:                                               ; preds = %9
  %25 = shl nuw i32 1, %16
  %26 = xor i32 %10, 1
  %27 = shl i32 %26, %2
  %28 = xor i32 %25, %27
  %29 = xor i32 %28, %1
  br label %30

30:                                               ; preds = %9, %24, %6
  %.0 = phi i32 [ %8, %6 ], [ %29, %24 ], [ %12, %9 ]
  ret i32 %.0
}